target datalayout = "e-m:e-p270:32:32-p271:32:32-p272:64:64-i64:64-i128:128-f80:128-n8:16:32:64-S128"
target triple = "x86_64-pc-linux-gnu"

@__const._ZN7glslang14TParseVersions17intcoopmatCheckNVERKNS_10TSourceLocEPKcb.extensions = private unnamed_addr constant [1 x ptr] [ptr @.str.119], align 8

; Function Attrs: mustprogress nounwind uwtable
define void @_ZN7glslang14TParseVersions17intcoopmatCheckNVERKNS_10TSourceLocEPKcb(ptr noundef nonnull align 8 dereferenceable(224) %0, ptr noundef nonnull align 8 dereferenceable(24) %1, ptr noundef %2, i1 noundef zeroext %3) unnamed_addr #0 align 2 {
  %5 = alloca ptr, align 8
  %6 = alloca ptr, align 8
  %7 = alloca ptr, align 8
  %8 = alloca i8, align 1
  %9 = alloca [1 x ptr], align 8
  store ptr %0, ptr %5, align 8
  store ptr %1, ptr %6, align 8
  store ptr %2, ptr %7, align 8
  %10 = zext i1 %3 to i8
  store i8 %10, ptr %8, align 1
  %11 = load ptr, ptr %5, align 8
  %12 = load i8, ptr %8, align 1
  %13 = trunc i8 %12 to i1
  br i1 %13, label %21, label %14

14:                                               ; preds = %4
  call void @llvm.memcpy.p0.p0.i64(ptr align 8 %9, ptr align 8 @__const._ZN7glslang14TParseVersions17intcoopmatCheckNVERKNS_10TSourceLocEPKcb.extensions, i64 8, i1 false)
  %15 = load ptr, ptr %6, align 8
  %16 = getelementptr inbounds [1 x ptr], ptr %9, i64 0, i64 0
  %17 = load ptr, ptr %7, align 8
  %18 = load ptr, ptr %11, align 8
  %19 = getelementptr inbounds ptr, ptr %18, i64 5
  %20 = load ptr, ptr %19, align 8
  call void %20(ptr noundef nonnull align 8 dereferenceable(224) %11, ptr noundef nonnull align 8 dereferenceable(24) %15, i32 noundef 1, ptr noundef %16, ptr noundef %17)
  br label %21

21:                                               ; preds = %14, %4
  ret void
}